(lp0
ccopy_reg
_reconstructor
p1
(cTestResult
TestResult
p2
c__builtin__
object
p3
Ntp4
Rp5
(dp6
S'avg_time'
p7
F0.009944915771484375
sS'D'
p8
I1000
sS'n'
p9
I1000
sS'alpha'
p10
F1.3
sS'avg_distance'
p11
F5.0
sS'method'
p12
S'hashing'
p13
sbag1
(g2
g3
Ntp14
Rp15
(dp16
g7
F0.003774881362915039
sg8
I1000
sg9
I1000
sg10
F1.3
sg11
F5.0
sg12
g13
sbag1
(g2
g3
Ntp17
Rp18
(dp19
g7
F0.01463007926940918
sg8
I1000
sg9
I1000
sg10
F1.3
sg11
Finf
sg12
g13
sbag1
(g2
g3
Ntp20
Rp21
(dp22
g7
F1.4370758533477783
sg8
I1000
sg9
I1000
sg10
F1.3
sg11
F7.810249675906654
sg12
S'kdtree'
p23
sbag1
(g2
g3
Ntp24
Rp25
(dp26
g7
F1.4846630096435547
sg8
I1000
sg9
I1000
sg10
F1.3
sg11
F7.810249675906654
sg12
g23
sbag1
(g2
g3
Ntp27
Rp28
(dp29
g7
F1.644995927810669
sg8
I1000
sg9
I1000
sg10
F1.3
sg11
F7.810249675906654
sg12
g23
sba.