(lp0
ccopy_reg
_reconstructor
p1
(cTestResult
TestResult
p2
c__builtin__
object
p3
Ntp4
Rp5
(dp6
S'avg_time'
p7
F0.0032379865646362306
sS'D'
p8
I1000
sS'n'
p9
I200
sS'alpha'
p10
F1.3
sS'avg_distance'
p11
F5.682831243323102
sS'method'
p12
S'hashing'
p13
sbag1
(g2
g3
Ntp14
Rp15
(dp16
g7
F0.0019124984741210938
sg8
I1000
sg9
I200
sg10
F1.3
sg11
F5.973358281018833
sg12
g13
sbag1
(g2
g3
Ntp17
Rp18
(dp19
g7
F0.014421510696411132
sg8
I1000
sg9
I200
sg10
F1.3
sg11
Finf
sg12
g13
sbag1
(g2
g3
Ntp20
Rp21
(dp22
g7
F0.3133399963378906
sg8
I1000
sg9
I200
sg10
F1.3
sg11
F6.922076830635072
sg12
S'kdtree'
p23
sbag1
(g2
g3
Ntp24
Rp25
(dp26
g7
F0.24337189197540282
sg8
I1000
sg9
I200
sg10
F1.3
sg11
F6.922076830635072
sg12
g23
sbag1
(g2
g3
Ntp27
Rp28
(dp29
g7
F0.2846240043640137
sg8
I1000
sg9
I200
sg10
F1.3
sg11
F6.922076830635072
sg12
g23
sba.