(lp0
ccopy_reg
_reconstructor
p1
(cTestResult
TestResult
p2
c__builtin__
object
p3
Ntp4
Rp5
(dp6
S'avg_time'
p7
F0.0012363791465759277
sS'D'
p8
I1000
sS'n'
p9
I100
sS'alpha'
p10
F1.3
sS'avg_distance'
p11
F0.0
sS'method'
p12
S'hashing'
p13
sbag1
(g2
g3
Ntp14
Rp15
(dp16
g7
F0.0017516303062438965
sg8
I1000
sg9
I100
sg10
F1.3
sg11
F0.0
sg12
g13
sbag1
(g2
g3
Ntp17
Rp18
(dp19
g7
F0.013711841106414794
sg8
I1000
sg9
I100
sg10
F1.3
sg11
F0.0
sg12
g13
sbag1
(g2
g3
Ntp20
Rp21
(dp22
g7
F0.17361956119537353
sg8
I1000
sg9
I100
sg10
F1.3
sg11
F6.30664275691763
sg12
S'kdtree'
p23
sbag1
(g2
g3
Ntp24
Rp25
(dp26
g7
F0.17480056047439574
sg8
I1000
sg9
I100
sg10
F1.3
sg11
F6.30664275691763
sg12
g23
sbag1
(g2
g3
Ntp27
Rp28
(dp29
g7
F0.17572954893112183
sg8
I1000
sg9
I100
sg10
F1.3
sg11
F6.30664275691763
sg12
g23
sba.