(lp0
ccopy_reg
_reconstructor
p1
(cTestResult
TestResult
p2
c__builtin__
object
p3
Ntp4
Rp5
(dp6
S'avg_time'
p7
F0.0047113895416259766
sS'D'
p8
I1000
sS'n'
p9
I300
sS'alpha'
p10
F1.3
sS'avg_distance'
p11
F5.093633133017752
sS'method'
p12
S'hashing'
p13
sbag1
(g2
g3
Ntp14
Rp15
(dp16
g7
F0.0019197940826416015
sg8
I1000
sg9
I300
sg10
F1.3
sg11
F5.3943678731126194
sg12
g13
sbag1
(g2
g3
Ntp17
Rp18
(dp19
g7
F0.012501239776611328
sg8
I1000
sg9
I300
sg10
F1.3
sg11
Finf
sg12
g13
sbag1
(g2
g3
Ntp20
Rp21
(dp22
g7
F0.1535344123840332
sg8
I1000
sg9
I300
sg10
F1.3
sg11
F5.742932133597987
sg12
S'kdtree'
p23
sbag1
(g2
g3
Ntp24
Rp25
(dp26
g7
F0.12374401092529297
sg8
I1000
sg9
I300
sg10
F1.3
sg11
F5.742932133597987
sg12
g23
sbag1
(g2
g3
Ntp27
Rp28
(dp29
g7
F0.1216118335723877
sg8
I1000
sg9
I300
sg10
F1.3
sg11
F5.742932133597987
sg12
g23
sba.